; Function Attrs: mustprogress uwtable
define hidden noundef zeroext i1 @_ZNK4cvc58internal23CodatatypeBoundVariableltERKS1_(ptr noundef nonnull align 8 dereferenceable(24) %this, ptr noundef nonnull align 8 dereferenceable(24) %cbv) local_unnamed_addr #3 align 2 {
entry:
  %0 = load ptr, ptr %this, align 8
  %1 = load ptr, ptr %cbv, align 8
  %2 = load ptr, ptr %0, align 8
  %bf.load.i = load i64, ptr %2, align 8
  %bf.clear.i = and i64 %bf.load.i, 1099511627775
  %3 = load ptr, ptr %1, align 8
  %bf.load3.i = load i64, ptr %3, align 8
  %bf.clear4.i = and i64 %bf.load3.i, 1099511627775
  %cmp.i = icmp samesign ult i64 %bf.clear.i, %bf.clear4.i
  br i1 %cmp.i, label %lor.end, label %lor.rhs

lor.rhs:                                          ; preds = %entry
  %cmp.i3 = icmp eq ptr %2, %3
  br i1 %cmp.i3, label %land.rhs, label %lor.end

land.rhs:                                         ; preds = %lor.rhs
  %d_index = getelementptr inbounds nuw i8, ptr %this, i64 8
  %d_index7 = getelementptr inbounds nuw i8, ptr %cbv, i64 8
  %call8 = tail call noundef zeroext i1 @_ZNK4cvc58internal7IntegerltERKS1_(ptr noundef nonnull align 8 dereferenceable(16) %d_index, ptr noundef nonnull align 8 dereferenceable(16) %d_index7)
  br label %lor.end

lor.end:                                          ; preds = %lor.rhs, %land.rhs, %entry
  %4 = phi i1 [ true, %entry ], [ false, %lor.rhs ], [ %call8, %land.rhs ]
  ret i1 %4
}